target datalayout = "e-m:e-p270:32:32-p271:32:32-p272:64:64-i64:64-i128:128-f80:128-n8:16:32:64-S128"
target triple = "x86_64-pc-linux-gnu"

%"class.pxrInternal_v0_24__pxrReserved__::TfEnum" = type <{ ptr, i32, [4 x i8] }>

@.str.22 = private unnamed_addr constant [26 x i8] c"Task::EvalNodeRelocations\00", align 1
@.str.23 = private unnamed_addr constant [29 x i8] c"Task::EvalImpliedRelocations\00", align 1
@.str.24 = private unnamed_addr constant [25 x i8] c"Task::EvalNodeReferences\00", align 1
@.str.25 = private unnamed_addr constant [23 x i8] c"Task::EvalNodePayloads\00", align 1
@.str.26 = private unnamed_addr constant [23 x i8] c"Task::EvalNodeInherits\00", align 1
@.str.27 = private unnamed_addr constant [25 x i8] c"Task::EvalImpliedClasses\00", align 1
@.str.28 = private unnamed_addr constant [26 x i8] c"Task::EvalNodeSpecializes\00", align 1
@.str.29 = private unnamed_addr constant [29 x i8] c"Task::EvalImpliedSpecializes\00", align 1
@.str.30 = private unnamed_addr constant [35 x i8] c"Task::EvalNodeAncestralVariantSets\00", align 1
@.str.31 = private unnamed_addr constant [39 x i8] c"Task::EvalNodeAncestralVariantAuthored\00", align 1
@.str.32 = private unnamed_addr constant [39 x i8] c"Task::EvalNodeAncestralVariantFallback\00", align 1
@.str.33 = private unnamed_addr constant [40 x i8] c"Task::EvalNodeAncestralVariantNoneFound\00", align 1
@.str.34 = private unnamed_addr constant [26 x i8] c"Task::EvalNodeVariantSets\00", align 1
@.str.35 = private unnamed_addr constant [30 x i8] c"Task::EvalNodeVariantAuthored\00", align 1
@.str.36 = private unnamed_addr constant [30 x i8] c"Task::EvalNodeVariantFallback\00", align 1
@.str.37 = private unnamed_addr constant [31 x i8] c"Task::EvalNodeVariantNoneFound\00", align 1
@.str.38 = private unnamed_addr constant [39 x i8] c"Task::EvalNodeAncestralDynamicPayloads\00", align 1
@.str.39 = private unnamed_addr constant [30 x i8] c"Task::EvalNodeDynamicPayloads\00", align 1
@.str.40 = private unnamed_addr constant [34 x i8] c"Task::EvalUnresolvedPrimPathError\00", align 1
@.str.41 = private unnamed_addr constant [11 x i8] c"Task::None\00", align 1
@_ZTIN32pxrInternal_v0_24__pxrReserved__12_GLOBAL__N_14Task4TypeE = internal constant { ptr, ptr } { ptr getelementptr inbounds (ptr, ptr @_ZTVN10__cxxabiv116__enum_type_infoE, i64 2), ptr @_ZTSN32pxrInternal_v0_24__pxrReserved__12_GLOBAL__N_14Task4TypeE }, align 8

; Function Attrs: mustprogress nounwind uwtable
define linkonce_odr noundef ptr @_ZN32pxrInternal_v0_24__pxrReserved__6TfEnum10_NameIdentEPKc(ptr noundef %0) #5 comdat align 2 {
  %2 = alloca ptr, align 8
  store ptr %0, ptr %2, align 8
  %3 = load ptr, ptr %2, align 8
  ret ptr %3
}

; Function Attrs: mustprogress nounwind uwtable
define internal void @_ZN32pxrInternal_v0_24__pxrReserved__6TfEnumC2INS_12_GLOBAL__N_14Task4TypeEEET_PNSt9enable_ifIXsr3std7is_enumIS5_EE5valueEvE4typeE(ptr noundef nonnull align 8 dereferenceable(12) %0, i32 noundef %1, ptr noundef %2) unnamed_addr #5 align 2 {
  %4 = alloca ptr, align 8
  %5 = alloca i32, align 4
  %6 = alloca ptr, align 8
  store ptr %0, ptr %4, align 8
  store i32 %1, ptr %5, align 4
  store ptr %2, ptr %6, align 8
  %7 = load ptr, ptr %4, align 8
  %8 = getelementptr inbounds nuw %"class.pxrInternal_v0_24__pxrReserved__::TfEnum", ptr %7, i32 0, i32 0
  store ptr @_ZTIN32pxrInternal_v0_24__pxrReserved__12_GLOBAL__N_14Task4TypeE, ptr %8, align 8
  %9 = getelementptr inbounds nuw %"class.pxrInternal_v0_24__pxrReserved__::TfEnum", ptr %7, i32 0, i32 1
  %10 = load i32, ptr %5, align 4
  store i32 %10, ptr %9, align 8
  ret void
}

; Function Attrs: mustprogress uwtable
define internal void @_ZN32pxrInternal_v0_24__pxrReserved__L23_Tf_RegistryFunction962EPNS_6TfEnumEPv(ptr noundef %0, ptr noundef %1) #4 {
  %3 = alloca ptr, align 8
  %4 = alloca ptr, align 8
  %5 = alloca %"class.pxrInternal_v0_24__pxrReserved__::TfEnum", align 8
  %6 = alloca %"class.pxrInternal_v0_24__pxrReserved__::TfEnum", align 8
  %7 = alloca %"class.pxrInternal_v0_24__pxrReserved__::TfEnum", align 8
  %8 = alloca %"class.pxrInternal_v0_24__pxrReserved__::TfEnum", align 8
  %9 = alloca %"class.pxrInternal_v0_24__pxrReserved__::TfEnum", align 8
  %10 = alloca %"class.pxrInternal_v0_24__pxrReserved__::TfEnum", align 8
  %11 = alloca %"class.pxrInternal_v0_24__pxrReserved__::TfEnum", align 8
  %12 = alloca %"class.pxrInternal_v0_24__pxrReserved__::TfEnum", align 8
  %13 = alloca %"class.pxrInternal_v0_24__pxrReserved__::TfEnum", align 8
  %14 = alloca %"class.pxrInternal_v0_24__pxrReserved__::TfEnum", align 8
  %15 = alloca %"class.pxrInternal_v0_24__pxrReserved__::TfEnum", align 8
  %16 = alloca %"class.pxrInternal_v0_24__pxrReserved__::TfEnum", align 8
  %17 = alloca %"class.pxrInternal_v0_24__pxrReserved__::TfEnum", align 8
  %18 = alloca %"class.pxrInternal_v0_24__pxrReserved__::TfEnum", align 8
  %19 = alloca %"class.pxrInternal_v0_24__pxrReserved__::TfEnum", align 8
  %20 = alloca %"class.pxrInternal_v0_24__pxrReserved__::TfEnum", align 8
  %21 = alloca %"class.pxrInternal_v0_24__pxrReserved__::TfEnum", align 8
  %22 = alloca %"class.pxrInternal_v0_24__pxrReserved__::TfEnum", align 8
  %23 = alloca %"class.pxrInternal_v0_24__pxrReserved__::TfEnum", align 8
  %24 = alloca %"class.pxrInternal_v0_24__pxrReserved__::TfEnum", align 8
  store ptr %0, ptr %3, align 8
  store ptr %1, ptr %4, align 8
  call void @_ZN32pxrInternal_v0_24__pxrReserved__6TfEnumC2INS_12_GLOBAL__N_14Task4TypeEEET_PNSt9enable_ifIXsr3std7is_enumIS5_EE5valueEvE4typeE(ptr noundef nonnull align 8 dereferenceable(12) %5, i32 noundef 0, ptr noundef null)
  %25 = call noundef ptr @_ZN32pxrInternal_v0_24__pxrReserved__6TfEnum10_NameIdentEPKc(ptr noundef null)
  %26 = getelementptr inbounds nuw { ptr, i32 }, ptr %5, i32 0, i32 0
  %27 = load ptr, ptr %26, align 8
  %28 = getelementptr inbounds nuw { ptr, i32 }, ptr %5, i32 0, i32 1
  %29 = load i32, ptr %28, align 8
  call void @_ZN32pxrInternal_v0_24__pxrReserved__6TfEnum8_AddNameES0_PKcS2_(ptr %27, i32 %29, ptr noundef @.str.22, ptr noundef %25)
  call void @_ZN32pxrInternal_v0_24__pxrReserved__6TfEnumC2INS_12_GLOBAL__N_14Task4TypeEEET_PNSt9enable_ifIXsr3std7is_enumIS5_EE5valueEvE4typeE(ptr noundef nonnull align 8 dereferenceable(12) %6, i32 noundef 1, ptr noundef null)
  %30 = call noundef ptr @_ZN32pxrInternal_v0_24__pxrReserved__6TfEnum10_NameIdentEPKc(ptr noundef null)
  %31 = getelementptr inbounds nuw { ptr, i32 }, ptr %6, i32 0, i32 0
  %32 = load ptr, ptr %31, align 8
  %33 = getelementptr inbounds nuw { ptr, i32 }, ptr %6, i32 0, i32 1
  %34 = load i32, ptr %33, align 8
  call void @_ZN32pxrInternal_v0_24__pxrReserved__6TfEnum8_AddNameES0_PKcS2_(ptr %32, i32 %34, ptr noundef @.str.23, ptr noundef %30)
  call void @_ZN32pxrInternal_v0_24__pxrReserved__6TfEnumC2INS_12_GLOBAL__N_14Task4TypeEEET_PNSt9enable_ifIXsr3std7is_enumIS5_EE5valueEvE4typeE(ptr noundef nonnull align 8 dereferenceable(12) %7, i32 noundef 2, ptr noundef null)
  %35 = call noundef ptr @_ZN32pxrInternal_v0_24__pxrReserved__6TfEnum10_NameIdentEPKc(ptr noundef null)
  %36 = getelementptr inbounds nuw { ptr, i32 }, ptr %7, i32 0, i32 0
  %37 = load ptr, ptr %36, align 8
  %38 = getelementptr inbounds nuw { ptr, i32 }, ptr %7, i32 0, i32 1
  %39 = load i32, ptr %38, align 8
  call void @_ZN32pxrInternal_v0_24__pxrReserved__6TfEnum8_AddNameES0_PKcS2_(ptr %37, i32 %39, ptr noundef @.str.24, ptr noundef %35)
  call void @_ZN32pxrInternal_v0_24__pxrReserved__6TfEnumC2INS_12_GLOBAL__N_14Task4TypeEEET_PNSt9enable_ifIXsr3std7is_enumIS5_EE5valueEvE4typeE(ptr noundef nonnull align 8 dereferenceable(12) %8, i32 noundef 3, ptr noundef null)
  %40 = call noundef ptr @_ZN32pxrInternal_v0_24__pxrReserved__6TfEnum10_NameIdentEPKc(ptr noundef null)
  %41 = getelementptr inbounds nuw { ptr, i32 }, ptr %8, i32 0, i32 0
  %42 = load ptr, ptr %41, align 8
  %43 = getelementptr inbounds nuw { ptr, i32 }, ptr %8, i32 0, i32 1
  %44 = load i32, ptr %43, align 8
  call void @_ZN32pxrInternal_v0_24__pxrReserved__6TfEnum8_AddNameES0_PKcS2_(ptr %42, i32 %44, ptr noundef @.str.25, ptr noundef %40)
  call void @_ZN32pxrInternal_v0_24__pxrReserved__6TfEnumC2INS_12_GLOBAL__N_14Task4TypeEEET_PNSt9enable_ifIXsr3std7is_enumIS5_EE5valueEvE4typeE(ptr noundef nonnull align 8 dereferenceable(12) %9, i32 noundef 4, ptr noundef null)
  %45 = call noundef ptr @_ZN32pxrInternal_v0_24__pxrReserved__6TfEnum10_NameIdentEPKc(ptr noundef null)
  %46 = getelementptr inbounds nuw { ptr, i32 }, ptr %9, i32 0, i32 0
  %47 = load ptr, ptr %46, align 8
  %48 = getelementptr inbounds nuw { ptr, i32 }, ptr %9, i32 0, i32 1
  %49 = load i32, ptr %48, align 8
  call void @_ZN32pxrInternal_v0_24__pxrReserved__6TfEnum8_AddNameES0_PKcS2_(ptr %47, i32 %49, ptr noundef @.str.26, ptr noundef %45)
  call void @_ZN32pxrInternal_v0_24__pxrReserved__6TfEnumC2INS_12_GLOBAL__N_14Task4TypeEEET_PNSt9enable_ifIXsr3std7is_enumIS5_EE5valueEvE4typeE(ptr noundef nonnull align 8 dereferenceable(12) %10, i32 noundef 5, ptr noundef null)
  %50 = call noundef ptr @_ZN32pxrInternal_v0_24__pxrReserved__6TfEnum10_NameIdentEPKc(ptr noundef null)
  %51 = getelementptr inbounds nuw { ptr, i32 }, ptr %10, i32 0, i32 0
  %52 = load ptr, ptr %51, align 8
  %53 = getelementptr inbounds nuw { ptr, i32 }, ptr %10, i32 0, i32 1
  %54 = load i32, ptr %53, align 8
  call void @_ZN32pxrInternal_v0_24__pxrReserved__6TfEnum8_AddNameES0_PKcS2_(ptr %52, i32 %54, ptr noundef @.str.27, ptr noundef %50)
  call void @_ZN32pxrInternal_v0_24__pxrReserved__6TfEnumC2INS_12_GLOBAL__N_14Task4TypeEEET_PNSt9enable_ifIXsr3std7is_enumIS5_EE5valueEvE4typeE(ptr noundef nonnull align 8 dereferenceable(12) %11, i32 noundef 6, ptr noundef null)
  %55 = call noundef ptr @_ZN32pxrInternal_v0_24__pxrReserved__6TfEnum10_NameIdentEPKc(ptr noundef null)
  %56 = getelementptr inbounds nuw { ptr, i32 }, ptr %11, i32 0, i32 0
  %57 = load ptr, ptr %56, align 8
  %58 = getelementptr inbounds nuw { ptr, i32 }, ptr %11, i32 0, i32 1
  %59 = load i32, ptr %58, align 8
  call void @_ZN32pxrInternal_v0_24__pxrReserved__6TfEnum8_AddNameES0_PKcS2_(ptr %57, i32 %59, ptr noundef @.str.28, ptr noundef %55)
  call void @_ZN32pxrInternal_v0_24__pxrReserved__6TfEnumC2INS_12_GLOBAL__N_14Task4TypeEEET_PNSt9enable_ifIXsr3std7is_enumIS5_EE5valueEvE4typeE(ptr noundef nonnull align 8 dereferenceable(12) %12, i32 noundef 12, ptr noundef null)
  %60 = call noundef ptr @_ZN32pxrInternal_v0_24__pxrReserved__6TfEnum10_NameIdentEPKc(ptr noundef null)
  %61 = getelementptr inbounds nuw { ptr, i32 }, ptr %12, i32 0, i32 0
  %62 = load ptr, ptr %61, align 8
  %63 = getelementptr inbounds nuw { ptr, i32 }, ptr %12, i32 0, i32 1
  %64 = load i32, ptr %63, align 8
  call void @_ZN32pxrInternal_v0_24__pxrReserved__6TfEnum8_AddNameES0_PKcS2_(ptr %62, i32 %64, ptr noundef @.str.29, ptr noundef %60)
  call void @_ZN32pxrInternal_v0_24__pxrReserved__6TfEnumC2INS_12_GLOBAL__N_14Task4TypeEEET_PNSt9enable_ifIXsr3std7is_enumIS5_EE5valueEvE4typeE(ptr noundef nonnull align 8 dereferenceable(12) %13, i32 noundef 7, ptr noundef null)
  %65 = call noundef ptr @_ZN32pxrInternal_v0_24__pxrReserved__6TfEnum10_NameIdentEPKc(ptr noundef null)
  %66 = getelementptr inbounds nuw { ptr, i32 }, ptr %13, i32 0, i32 0
  %67 = load ptr, ptr %66, align 8
  %68 = getelementptr inbounds nuw { ptr, i32 }, ptr %13, i32 0, i32 1
  %69 = load i32, ptr %68, align 8
  call void @_ZN32pxrInternal_v0_24__pxrReserved__6TfEnum8_AddNameES0_PKcS2_(ptr %67, i32 %69, ptr noundef @.str.30, ptr noundef %65)
  call void @_ZN32pxrInternal_v0_24__pxrReserved__6TfEnumC2INS_12_GLOBAL__N_14Task4TypeEEET_PNSt9enable_ifIXsr3std7is_enumIS5_EE5valueEvE4typeE(ptr noundef nonnull align 8 dereferenceable(12) %14, i32 noundef 8, ptr noundef null)
  %70 = call noundef ptr @_ZN32pxrInternal_v0_24__pxrReserved__6TfEnum10_NameIdentEPKc(ptr noundef null)
  %71 = getelementptr inbounds nuw { ptr, i32 }, ptr %14, i32 0, i32 0
  %72 = load ptr, ptr %71, align 8
  %73 = getelementptr inbounds nuw { ptr, i32 }, ptr %14, i32 0, i32 1
  %74 = load i32, ptr %73, align 8
  call void @_ZN32pxrInternal_v0_24__pxrReserved__6TfEnum8_AddNameES0_PKcS2_(ptr %72, i32 %74, ptr noundef @.str.31, ptr noundef %70)
  call void @_ZN32pxrInternal_v0_24__pxrReserved__6TfEnumC2INS_12_GLOBAL__N_14Task4TypeEEET_PNSt9enable_ifIXsr3std7is_enumIS5_EE5valueEvE4typeE(ptr noundef nonnull align 8 dereferenceable(12) %15, i32 noundef 9, ptr noundef null)
  %75 = call noundef ptr @_ZN32pxrInternal_v0_24__pxrReserved__6TfEnum10_NameIdentEPKc(ptr noundef null)
  %76 = getelementptr inbounds nuw { ptr, i32 }, ptr %15, i32 0, i32 0
  %77 = load ptr, ptr %76, align 8
  %78 = getelementptr inbounds nuw { ptr, i32 }, ptr %15, i32 0, i32 1
  %79 = load i32, ptr %78, align 8
  call void @_ZN32pxrInternal_v0_24__pxrReserved__6TfEnum8_AddNameES0_PKcS2_(ptr %77, i32 %79, ptr noundef @.str.32, ptr noundef %75)
  call void @_ZN32pxrInternal_v0_24__pxrReserved__6TfEnumC2INS_12_GLOBAL__N_14Task4TypeEEET_PNSt9enable_ifIXsr3std7is_enumIS5_EE5valueEvE4typeE(ptr noundef nonnull align 8 dereferenceable(12) %16, i32 noundef 10, ptr noundef null)
  %80 = call noundef ptr @_ZN32pxrInternal_v0_24__pxrReserved__6TfEnum10_NameIdentEPKc(ptr noundef null)
  %81 = getelementptr inbounds nuw { ptr, i32 }, ptr %16, i32 0, i32 0
  %82 = load ptr, ptr %81, align 8
  %83 = getelementptr inbounds nuw { ptr, i32 }, ptr %16, i32 0, i32 1
  %84 = load i32, ptr %83, align 8
  call void @_ZN32pxrInternal_v0_24__pxrReserved__6TfEnum8_AddNameES0_PKcS2_(ptr %82, i32 %84, ptr noundef @.str.33, ptr noundef %80)
  call void @_ZN32pxrInternal_v0_24__pxrReserved__6TfEnumC2INS_12_GLOBAL__N_14Task4TypeEEET_PNSt9enable_ifIXsr3std7is_enumIS5_EE5valueEvE4typeE(ptr noundef nonnull align 8 dereferenceable(12) %17, i32 noundef 13, ptr noundef null)
  %85 = call noundef ptr @_ZN32pxrInternal_v0_24__pxrReserved__6TfEnum10_NameIdentEPKc(ptr noundef null)
  %86 = getelementptr inbounds nuw { ptr, i32 }, ptr %17, i32 0, i32 0
  %87 = load ptr, ptr %86, align 8
  %88 = getelementptr inbounds nuw { ptr, i32 }, ptr %17, i32 0, i32 1
  %89 = load i32, ptr %88, align 8
  call void @_ZN32pxrInternal_v0_24__pxrReserved__6TfEnum8_AddNameES0_PKcS2_(ptr %87, i32 %89, ptr noundef @.str.34, ptr noundef %85)
  call void @_ZN32pxrInternal_v0_24__pxrReserved__6TfEnumC2INS_12_GLOBAL__N_14Task4TypeEEET_PNSt9enable_ifIXsr3std7is_enumIS5_EE5valueEvE4typeE(ptr noundef nonnull align 8 dereferenceable(12) %18, i32 noundef 14, ptr noundef null)
  %90 = call noundef ptr @_ZN32pxrInternal_v0_24__pxrReserved__6TfEnum10_NameIdentEPKc(ptr noundef null)
  %91 = getelementptr inbounds nuw { ptr, i32 }, ptr %18, i32 0, i32 0
  %92 = load ptr, ptr %91, align 8
  %93 = getelementptr inbounds nuw { ptr, i32 }, ptr %18, i32 0, i32 1
  %94 = load i32, ptr %93, align 8
  call void @_ZN32pxrInternal_v0_24__pxrReserved__6TfEnum8_AddNameES0_PKcS2_(ptr %92, i32 %94, ptr noundef @.str.35, ptr noundef %90)
  call void @_ZN32pxrInternal_v0_24__pxrReserved__6TfEnumC2INS_12_GLOBAL__N_14Task4TypeEEET_PNSt9enable_ifIXsr3std7is_enumIS5_EE5valueEvE4typeE(ptr noundef nonnull align 8 dereferenceable(12) %19, i32 noundef 15, ptr noundef null)
  %95 = call noundef ptr @_ZN32pxrInternal_v0_24__pxrReserved__6TfEnum10_NameIdentEPKc(ptr noundef null)
  %96 = getelementptr inbounds nuw { ptr, i32 }, ptr %19, i32 0, i32 0
  %97 = load ptr, ptr %96, align 8
  %98 = getelementptr inbounds nuw { ptr, i32 }, ptr %19, i32 0, i32 1
  %99 = load i32, ptr %98, align 8
  call void @_ZN32pxrInternal_v0_24__pxrReserved__6TfEnum8_AddNameES0_PKcS2_(ptr %97, i32 %99, ptr noundef @.str.36, ptr noundef %95)
  call void @_ZN32pxrInternal_v0_24__pxrReserved__6TfEnumC2INS_12_GLOBAL__N_14Task4TypeEEET_PNSt9enable_ifIXsr3std7is_enumIS5_EE5valueEvE4typeE(ptr noundef nonnull align 8 dereferenceable(12) %20, i32 noundef 16, ptr noundef null)
  %100 = call noundef ptr @_ZN32pxrInternal_v0_24__pxrReserved__6TfEnum10_NameIdentEPKc(ptr noundef null)
  %101 = getelementptr inbounds nuw { ptr, i32 }, ptr %20, i32 0, i32 0
  %102 = load ptr, ptr %101, align 8
  %103 = getelementptr inbounds nuw { ptr, i32 }, ptr %20, i32 0, i32 1
  %104 = load i32, ptr %103, align 8
  call void @_ZN32pxrInternal_v0_24__pxrReserved__6TfEnum8_AddNameES0_PKcS2_(ptr %102, i32 %104, ptr noundef @.str.37, ptr noundef %100)
  call void @_ZN32pxrInternal_v0_24__pxrReserved__6TfEnumC2INS_12_GLOBAL__N_14Task4TypeEEET_PNSt9enable_ifIXsr3std7is_enumIS5_EE5valueEvE4typeE(ptr noundef nonnull align 8 dereferenceable(12) %21, i32 noundef 11, ptr noundef null)
  %105 = call noundef ptr @_ZN32pxrInternal_v0_24__pxrReserved__6TfEnum10_NameIdentEPKc(ptr noundef null)
  %106 = getelementptr inbounds nuw { ptr, i32 }, ptr %21, i32 0, i32 0
  %107 = load ptr, ptr %106, align 8
  %108 = getelementptr inbounds nuw { ptr, i32 }, ptr %21, i32 0, i32 1
  %109 = load i32, ptr %108, align 8
  call void @_ZN32pxrInternal_v0_24__pxrReserved__6TfEnum8_AddNameES0_PKcS2_(ptr %107, i32 %109, ptr noundef @.str.38, ptr noundef %105)
  call void @_ZN32pxrInternal_v0_24__pxrReserved__6TfEnumC2INS_12_GLOBAL__N_14Task4TypeEEET_PNSt9enable_ifIXsr3std7is_enumIS5_EE5valueEvE4typeE(ptr noundef nonnull align 8 dereferenceable(12) %22, i32 noundef 17, ptr noundef null)
  %110 = call noundef ptr @_ZN32pxrInternal_v0_24__pxrReserved__6TfEnum10_NameIdentEPKc(ptr noundef null)
  %111 = getelementptr inbounds nuw { ptr, i32 }, ptr %22, i32 0, i32 0
  %112 = load ptr, ptr %111, align 8
  %113 = getelementptr inbounds nuw { ptr, i32 }, ptr %22, i32 0, i32 1
  %114 = load i32, ptr %113, align 8
  call void @_ZN32pxrInternal_v0_24__pxrReserved__6TfEnum8_AddNameES0_PKcS2_(ptr %112, i32 %114, ptr noundef @.str.39, ptr noundef %110)
  call void @_ZN32pxrInternal_v0_24__pxrReserved__6TfEnumC2INS_12_GLOBAL__N_14Task4TypeEEET_PNSt9enable_ifIXsr3std7is_enumIS5_EE5valueEvE4typeE(ptr noundef nonnull align 8 dereferenceable(12) %23, i32 noundef 18, ptr noundef null)
  %115 = call noundef ptr @_ZN32pxrInternal_v0_24__pxrReserved__6TfEnum10_NameIdentEPKc(ptr noundef null)
  %116 = getelementptr inbounds nuw { ptr, i32 }, ptr %23, i32 0, i32 0
  %117 = load ptr, ptr %116, align 8
  %118 = getelementptr inbounds nuw { ptr, i32 }, ptr %23, i32 0, i32 1
  %119 = load i32, ptr %118, align 8
  call void @_ZN32pxrInternal_v0_24__pxrReserved__6TfEnum8_AddNameES0_PKcS2_(ptr %117, i32 %119, ptr noundef @.str.40, ptr noundef %115)
  call void @_ZN32pxrInternal_v0_24__pxrReserved__6TfEnumC2INS_12_GLOBAL__N_14Task4TypeEEET_PNSt9enable_ifIXsr3std7is_enumIS5_EE5valueEvE4typeE(ptr noundef nonnull align 8 dereferenceable(12) %24, i32 noundef 19, ptr noundef null)
  %120 = call noundef ptr @_ZN32pxrInternal_v0_24__pxrReserved__6TfEnum10_NameIdentEPKc(ptr noundef null)
  %121 = getelementptr inbounds nuw { ptr, i32 }, ptr %24, i32 0, i32 0
  %122 = load ptr, ptr %121, align 8
  %123 = getelementptr inbounds nuw { ptr, i32 }, ptr %24, i32 0, i32 1
  %124 = load i32, ptr %123, align 8
  call void @_ZN32pxrInternal_v0_24__pxrReserved__6TfEnum8_AddNameES0_PKcS2_(ptr %122, i32 %124, ptr noundef @.str.41, ptr noundef %120)
  ret void
}