; Function Attrs: mustprogress uwtable
define internal void @_ZN32pxrInternal_v0_24__pxrReserved__L23_Tf_RegistryFunction962EPNS_6TfEnumEPv(ptr nocapture readnone %0, ptr nocapture readnone %1) #3 {
  tail call void @_ZN32pxrInternal_v0_24__pxrReserved__6TfEnum8_AddNameES0_PKcS2_(ptr nonnull @_ZTIN32pxrInternal_v0_24__pxrReserved__12_GLOBAL__N_14Task4TypeE, i32 0, ptr noundef nonnull @.str.22, ptr noundef null)
  tail call void @_ZN32pxrInternal_v0_24__pxrReserved__6TfEnum8_AddNameES0_PKcS2_(ptr nonnull @_ZTIN32pxrInternal_v0_24__pxrReserved__12_GLOBAL__N_14Task4TypeE, i32 1, ptr noundef nonnull @.str.23, ptr noundef null)
  tail call void @_ZN32pxrInternal_v0_24__pxrReserved__6TfEnum8_AddNameES0_PKcS2_(ptr nonnull @_ZTIN32pxrInternal_v0_24__pxrReserved__12_GLOBAL__N_14Task4TypeE, i32 2, ptr noundef nonnull @.str.24, ptr noundef null)
  tail call void @_ZN32pxrInternal_v0_24__pxrReserved__6TfEnum8_AddNameES0_PKcS2_(ptr nonnull @_ZTIN32pxrInternal_v0_24__pxrReserved__12_GLOBAL__N_14Task4TypeE, i32 3, ptr noundef nonnull @.str.25, ptr noundef null)
  tail call void @_ZN32pxrInternal_v0_24__pxrReserved__6TfEnum8_AddNameES0_PKcS2_(ptr nonnull @_ZTIN32pxrInternal_v0_24__pxrReserved__12_GLOBAL__N_14Task4TypeE, i32 4, ptr noundef nonnull @.str.26, ptr noundef null)
  tail call void @_ZN32pxrInternal_v0_24__pxrReserved__6TfEnum8_AddNameES0_PKcS2_(ptr nonnull @_ZTIN32pxrInternal_v0_24__pxrReserved__12_GLOBAL__N_14Task4TypeE, i32 5, ptr noundef nonnull @.str.27, ptr noundef null)
  tail call void @_ZN32pxrInternal_v0_24__pxrReserved__6TfEnum8_AddNameES0_PKcS2_(ptr nonnull @_ZTIN32pxrInternal_v0_24__pxrReserved__12_GLOBAL__N_14Task4TypeE, i32 6, ptr noundef nonnull @.str.28, ptr noundef null)
  tail call void @_ZN32pxrInternal_v0_24__pxrReserved__6TfEnum8_AddNameES0_PKcS2_(ptr nonnull @_ZTIN32pxrInternal_v0_24__pxrReserved__12_GLOBAL__N_14Task4TypeE, i32 12, ptr noundef nonnull @.str.29, ptr noundef null)
  tail call void @_ZN32pxrInternal_v0_24__pxrReserved__6TfEnum8_AddNameES0_PKcS2_(ptr nonnull @_ZTIN32pxrInternal_v0_24__pxrReserved__12_GLOBAL__N_14Task4TypeE, i32 7, ptr noundef nonnull @.str.30, ptr noundef null)
  tail call void @_ZN32pxrInternal_v0_24__pxrReserved__6TfEnum8_AddNameES0_PKcS2_(ptr nonnull @_ZTIN32pxrInternal_v0_24__pxrReserved__12_GLOBAL__N_14Task4TypeE, i32 8, ptr noundef nonnull @.str.31, ptr noundef null)
  tail call void @_ZN32pxrInternal_v0_24__pxrReserved__6TfEnum8_AddNameES0_PKcS2_(ptr nonnull @_ZTIN32pxrInternal_v0_24__pxrReserved__12_GLOBAL__N_14Task4TypeE, i32 9, ptr noundef nonnull @.str.32, ptr noundef null)
  tail call void @_ZN32pxrInternal_v0_24__pxrReserved__6TfEnum8_AddNameES0_PKcS2_(ptr nonnull @_ZTIN32pxrInternal_v0_24__pxrReserved__12_GLOBAL__N_14Task4TypeE, i32 10, ptr noundef nonnull @.str.33, ptr noundef null)
  tail call void @_ZN32pxrInternal_v0_24__pxrReserved__6TfEnum8_AddNameES0_PKcS2_(ptr nonnull @_ZTIN32pxrInternal_v0_24__pxrReserved__12_GLOBAL__N_14Task4TypeE, i32 13, ptr noundef nonnull @.str.34, ptr noundef null)
  tail call void @_ZN32pxrInternal_v0_24__pxrReserved__6TfEnum8_AddNameES0_PKcS2_(ptr nonnull @_ZTIN32pxrInternal_v0_24__pxrReserved__12_GLOBAL__N_14Task4TypeE, i32 14, ptr noundef nonnull @.str.35, ptr noundef null)
  tail call void @_ZN32pxrInternal_v0_24__pxrReserved__6TfEnum8_AddNameES0_PKcS2_(ptr nonnull @_ZTIN32pxrInternal_v0_24__pxrReserved__12_GLOBAL__N_14Task4TypeE, i32 15, ptr noundef nonnull @.str.36, ptr noundef null)
  tail call void @_ZN32pxrInternal_v0_24__pxrReserved__6TfEnum8_AddNameES0_PKcS2_(ptr nonnull @_ZTIN32pxrInternal_v0_24__pxrReserved__12_GLOBAL__N_14Task4TypeE, i32 16, ptr noundef nonnull @.str.37, ptr noundef null)
  tail call void @_ZN32pxrInternal_v0_24__pxrReserved__6TfEnum8_AddNameES0_PKcS2_(ptr nonnull @_ZTIN32pxrInternal_v0_24__pxrReserved__12_GLOBAL__N_14Task4TypeE, i32 11, ptr noundef nonnull @.str.38, ptr noundef null)
  tail call void @_ZN32pxrInternal_v0_24__pxrReserved__6TfEnum8_AddNameES0_PKcS2_(ptr nonnull @_ZTIN32pxrInternal_v0_24__pxrReserved__12_GLOBAL__N_14Task4TypeE, i32 17, ptr noundef nonnull @.str.39, ptr noundef null)
  tail call void @_ZN32pxrInternal_v0_24__pxrReserved__6TfEnum8_AddNameES0_PKcS2_(ptr nonnull @_ZTIN32pxrInternal_v0_24__pxrReserved__12_GLOBAL__N_14Task4TypeE, i32 18, ptr noundef nonnull @.str.40, ptr noundef null)
  tail call void @_ZN32pxrInternal_v0_24__pxrReserved__6TfEnum8_AddNameES0_PKcS2_(ptr nonnull @_ZTIN32pxrInternal_v0_24__pxrReserved__12_GLOBAL__N_14Task4TypeE, i32 19, ptr noundef nonnull @.str.41, ptr noundef null)
  ret void
}